; Function Attrs: mustprogress nofree norecurse nosync nounwind willreturn memory(argmem: readwrite) uwtable
define hidden void @_ZNK2cv13wechat_qrcode9ImgSource9arrayCopyEPhiPcii(ptr noundef nonnull readnone align 8 captures(none) dereferenceable(80) %0, ptr noundef readonly captures(none) %1, i32 noundef %2, ptr noundef writeonly captures(none) %3, i32 noundef %4, i32 noundef %5) local_unnamed_addr #8 align 2 {
  %7 = sext i32 %2 to i64
  %8 = getelementptr inbounds i8, ptr %1, i64 %7
  %9 = sext i32 %4 to i64
  %10 = getelementptr inbounds i8, ptr %3, i64 %9
  %11 = sext i32 %5 to i64
  tail call void @llvm.memcpy.p0.p0.i64(ptr align 1 %10, ptr align 1 %8, i64 %11, i1 false)
  ret void
}